target datalayout = "e-m:e-p270:32:32-p271:32:32-p272:64:64-i64:64-i128:128-f80:128-n8:16:32:64-S128"
target triple = "x86_64-pc-linux-gnu"

%struct._cms_curve_struct = type { ptr, i32, ptr, ptr, ptr, i32, ptr }
%struct.cmsCurveSegment = type { float, float, i32, [10 x double], i32, ptr }
%struct._cms_interp_struc = type { ptr, i32, i32, i32, [15 x i32], [15 x i32], [15 x i32], ptr, %union.cmsInterpFunction }
%union.cmsInterpFunction = type { ptr }

; Function Attrs: nounwind uwtable
define internal i32 @_cmsQuickFloor(double noundef %0) #0 {
  %2 = alloca double, align 8
  store double %0, ptr %2, align 8
  %3 = load double, ptr %2, align 8
  %4 = call double @llvm.floor.f64(double %3)
  %5 = fptosi double %4 to i32
  ret i32 %5
}

; Function Attrs: nounwind uwtable
define internal zeroext i16 @_cmsQuickFloorWord(double noundef %0) #0 {
  %2 = alloca double, align 8
  store double %0, ptr %2, align 8
  %3 = load double, ptr %2, align 8
  %4 = fsub double %3, 3.276700e+04
  %5 = call i32 @_cmsQuickFloor(double noundef %4)
  %6 = trunc i32 %5 to i16
  %7 = zext i16 %6 to i32
  %8 = add i32 %7, 32767
  %9 = trunc i32 %8 to i16
  ret i16 %9
}

; Function Attrs: nounwind uwtable
define internal double @EvalSegmentedFn(ptr noundef %0, double noundef %1) #0 {
  %3 = alloca double, align 8
  %4 = alloca ptr, align 8
  %5 = alloca double, align 8
  %6 = alloca i32, align 4
  %7 = alloca float, align 4
  %8 = alloca double, align 8
  %9 = alloca float, align 4
  store ptr %0, ptr %4, align 8
  store double %1, ptr %5, align 8
  %10 = load ptr, ptr %4, align 8
  %11 = getelementptr inbounds %struct._cms_curve_struct, ptr %10, i32 0, i32 1
  %12 = load i32, ptr %11, align 8
  %13 = sub nsw i32 %12, 1
  store i32 %13, ptr %6, align 4
  br label %14

14:                                               ; preds = %167, %2
  %15 = load i32, ptr %6, align 4
  %16 = icmp sge i32 %15, 0
  br i1 %16, label %17, label %170

17:                                               ; preds = %14
  %18 = load double, ptr %5, align 8
  %19 = load ptr, ptr %4, align 8
  %20 = getelementptr inbounds %struct._cms_curve_struct, ptr %19, i32 0, i32 2
  %21 = load ptr, ptr %20, align 8
  %22 = load i32, ptr %6, align 4
  %23 = sext i32 %22 to i64
  %24 = getelementptr inbounds %struct.cmsCurveSegment, ptr %21, i64 %23
  %25 = getelementptr inbounds %struct.cmsCurveSegment, ptr %24, i32 0, i32 0
  %26 = load float, ptr %25, align 8
  %27 = fpext float %26 to double
  %28 = fcmp ogt double %18, %27
  br i1 %28, label %29, label %166

29:                                               ; preds = %17
  %30 = load double, ptr %5, align 8
  %31 = load ptr, ptr %4, align 8
  %32 = getelementptr inbounds %struct._cms_curve_struct, ptr %31, i32 0, i32 2
  %33 = load ptr, ptr %32, align 8
  %34 = load i32, ptr %6, align 4
  %35 = sext i32 %34 to i64
  %36 = getelementptr inbounds %struct.cmsCurveSegment, ptr %33, i64 %35
  %37 = getelementptr inbounds %struct.cmsCurveSegment, ptr %36, i32 0, i32 1
  %38 = load float, ptr %37, align 4
  %39 = fpext float %38 to double
  %40 = fcmp ole double %30, %39
  br i1 %40, label %41, label %166

41:                                               ; preds = %29
  %42 = load ptr, ptr %4, align 8
  %43 = getelementptr inbounds %struct._cms_curve_struct, ptr %42, i32 0, i32 2
  %44 = load ptr, ptr %43, align 8
  %45 = load i32, ptr %6, align 4
  %46 = sext i32 %45 to i64
  %47 = getelementptr inbounds %struct.cmsCurveSegment, ptr %44, i64 %46
  %48 = getelementptr inbounds %struct.cmsCurveSegment, ptr %47, i32 0, i32 2
  %49 = load i32, ptr %48, align 8
  %50 = icmp eq i32 %49, 0
  br i1 %50, label %51, label %116

51:                                               ; preds = %41
  %52 = load double, ptr %5, align 8
  %53 = load ptr, ptr %4, align 8
  %54 = getelementptr inbounds %struct._cms_curve_struct, ptr %53, i32 0, i32 2
  %55 = load ptr, ptr %54, align 8
  %56 = load i32, ptr %6, align 4
  %57 = sext i32 %56 to i64
  %58 = getelementptr inbounds %struct.cmsCurveSegment, ptr %55, i64 %57
  %59 = getelementptr inbounds %struct.cmsCurveSegment, ptr %58, i32 0, i32 0
  %60 = load float, ptr %59, align 8
  %61 = fpext float %60 to double
  %62 = fsub double %52, %61
  %63 = fptrunc double %62 to float
  %64 = load ptr, ptr %4, align 8
  %65 = getelementptr inbounds %struct._cms_curve_struct, ptr %64, i32 0, i32 2
  %66 = load ptr, ptr %65, align 8
  %67 = load i32, ptr %6, align 4
  %68 = sext i32 %67 to i64
  %69 = getelementptr inbounds %struct.cmsCurveSegment, ptr %66, i64 %68
  %70 = getelementptr inbounds %struct.cmsCurveSegment, ptr %69, i32 0, i32 1
  %71 = load float, ptr %70, align 4
  %72 = load ptr, ptr %4, align 8
  %73 = getelementptr inbounds %struct._cms_curve_struct, ptr %72, i32 0, i32 2
  %74 = load ptr, ptr %73, align 8
  %75 = load i32, ptr %6, align 4
  %76 = sext i32 %75 to i64
  %77 = getelementptr inbounds %struct.cmsCurveSegment, ptr %74, i64 %76
  %78 = getelementptr inbounds %struct.cmsCurveSegment, ptr %77, i32 0, i32 0
  %79 = load float, ptr %78, align 8
  %80 = fsub float %71, %79
  %81 = fdiv float %63, %80
  store float %81, ptr %9, align 4
  %82 = load ptr, ptr %4, align 8
  %83 = getelementptr inbounds %struct._cms_curve_struct, ptr %82, i32 0, i32 2
  %84 = load ptr, ptr %83, align 8
  %85 = load i32, ptr %6, align 4
  %86 = sext i32 %85 to i64
  %87 = getelementptr inbounds %struct.cmsCurveSegment, ptr %84, i64 %86
  %88 = getelementptr inbounds %struct.cmsCurveSegment, ptr %87, i32 0, i32 5
  %89 = load ptr, ptr %88, align 8
  %90 = load ptr, ptr %4, align 8
  %91 = getelementptr inbounds %struct._cms_curve_struct, ptr %90, i32 0, i32 3
  %92 = load ptr, ptr %91, align 8
  %93 = load i32, ptr %6, align 4
  %94 = sext i32 %93 to i64
  %95 = getelementptr inbounds ptr, ptr %92, i64 %94
  %96 = load ptr, ptr %95, align 8
  %97 = getelementptr inbounds %struct._cms_interp_struc, ptr %96, i32 0, i32 7
  store ptr %89, ptr %97, align 8
  %98 = load ptr, ptr %4, align 8
  %99 = getelementptr inbounds %struct._cms_curve_struct, ptr %98, i32 0, i32 3
  %100 = load ptr, ptr %99, align 8
  %101 = load i32, ptr %6, align 4
  %102 = sext i32 %101 to i64
  %103 = getelementptr inbounds ptr, ptr %100, i64 %102
  %104 = load ptr, ptr %103, align 8
  %105 = getelementptr inbounds %struct._cms_interp_struc, ptr %104, i32 0, i32 8
  %106 = load ptr, ptr %105, align 8
  %107 = load ptr, ptr %4, align 8
  %108 = getelementptr inbounds %struct._cms_curve_struct, ptr %107, i32 0, i32 3
  %109 = load ptr, ptr %108, align 8
  %110 = load i32, ptr %6, align 4
  %111 = sext i32 %110 to i64
  %112 = getelementptr inbounds ptr, ptr %109, i64 %111
  %113 = load ptr, ptr %112, align 8
  call void %106(ptr noundef %9, ptr noundef %7, ptr noundef %113)
  %114 = load float, ptr %7, align 4
  %115 = fpext float %114 to double
  store double %115, ptr %8, align 8
  br label %142

116:                                              ; preds = %41
  %117 = load ptr, ptr %4, align 8
  %118 = getelementptr inbounds %struct._cms_curve_struct, ptr %117, i32 0, i32 4
  %119 = load ptr, ptr %118, align 8
  %120 = load i32, ptr %6, align 4
  %121 = sext i32 %120 to i64
  %122 = getelementptr inbounds ptr, ptr %119, i64 %121
  %123 = load ptr, ptr %122, align 8
  %124 = load ptr, ptr %4, align 8
  %125 = getelementptr inbounds %struct._cms_curve_struct, ptr %124, i32 0, i32 2
  %126 = load ptr, ptr %125, align 8
  %127 = load i32, ptr %6, align 4
  %128 = sext i32 %127 to i64
  %129 = getelementptr inbounds %struct.cmsCurveSegment, ptr %126, i64 %128
  %130 = getelementptr inbounds %struct.cmsCurveSegment, ptr %129, i32 0, i32 2
  %131 = load i32, ptr %130, align 8
  %132 = load ptr, ptr %4, align 8
  %133 = getelementptr inbounds %struct._cms_curve_struct, ptr %132, i32 0, i32 2
  %134 = load ptr, ptr %133, align 8
  %135 = load i32, ptr %6, align 4
  %136 = sext i32 %135 to i64
  %137 = getelementptr inbounds %struct.cmsCurveSegment, ptr %134, i64 %136
  %138 = getelementptr inbounds %struct.cmsCurveSegment, ptr %137, i32 0, i32 3
  %139 = getelementptr inbounds [10 x double], ptr %138, i64 0, i64 0
  %140 = load double, ptr %5, align 8
  %141 = call double %123(i32 noundef %131, ptr noundef %139, double noundef %140)
  store double %141, ptr %8, align 8
  br label %142

142:                                              ; preds = %116, %51
  %143 = load double, ptr %8, align 8
  %144 = call double @llvm.fabs.f64(double %143) #6
  %145 = fcmp oeq double %144, 0x7FF0000000000000
  %146 = bitcast double %143 to i64
  %147 = icmp slt i64 %146, 0
  %148 = select i1 %147, i32 -1, i32 1
  %149 = select i1 %145, i32 %148, i32 0
  %150 = icmp ne i32 %149, 0
  br i1 %150, label %151, label %152

151:                                              ; preds = %142
  store double 0x4480F0CF00000000, ptr %3, align 8
  br label %171

152:                                              ; preds = %142
  %153 = load double, ptr %8, align 8
  %154 = fneg double %153
  %155 = call double @llvm.fabs.f64(double %154) #6
  %156 = fcmp oeq double %155, 0x7FF0000000000000
  %157 = bitcast double %154 to i64
  %158 = icmp slt i64 %157, 0
  %159 = select i1 %158, i32 -1, i32 1
  %160 = select i1 %156, i32 %159, i32 0
  %161 = icmp ne i32 %160, 0
  br i1 %161, label %162, label %163

162:                                              ; preds = %152
  store double 0xC480F0CF00000000, ptr %3, align 8
  br label %171

163:                                              ; preds = %152
  br label %164

164:                                              ; preds = %163
  %165 = load double, ptr %8, align 8
  store double %165, ptr %3, align 8
  br label %171

166:                                              ; preds = %29, %17
  br label %167

167:                                              ; preds = %166
  %168 = load i32, ptr %6, align 4
  %169 = add nsw i32 %168, -1
  store i32 %169, ptr %6, align 4
  br label %14, !llvm.loop !12

170:                                              ; preds = %14
  store double 0xC480F0CF00000000, ptr %3, align 8
  br label %171

171:                                              ; preds = %170, %164, %162, %151
  %172 = load double, ptr %3, align 8
  ret double %172
}

; Function Attrs: nounwind uwtable
define hidden zeroext i16 @cmsEvalToneCurve16(ptr noundef %0, i16 noundef zeroext %1) #0 {
  %3 = alloca ptr, align 8
  %4 = alloca i16, align 2
  %5 = alloca i16, align 2
  store ptr %0, ptr %3, align 8
  store i16 %1, ptr %4, align 2
  %6 = load ptr, ptr %3, align 8
  %7 = getelementptr inbounds %struct._cms_curve_struct, ptr %6, i32 0, i32 0
  %8 = load ptr, ptr %7, align 8
  %9 = getelementptr inbounds %struct._cms_interp_struc, ptr %8, i32 0, i32 8
  %10 = load ptr, ptr %9, align 8
  %11 = load ptr, ptr %3, align 8
  %12 = getelementptr inbounds %struct._cms_curve_struct, ptr %11, i32 0, i32 0
  %13 = load ptr, ptr %12, align 8
  call void %10(ptr noundef %4, ptr noundef %5, ptr noundef %13)
  %14 = load i16, ptr %5, align 2
  ret i16 %14
}

; Function Attrs: nounwind uwtable
define internal zeroext i16 @_cmsQuickSaturateWord(double noundef %0) #0 {
  %2 = alloca i16, align 2
  %3 = alloca double, align 8
  store double %0, ptr %3, align 8
  %4 = load double, ptr %3, align 8
  %5 = fadd double %4, 5.000000e-01
  store double %5, ptr %3, align 8
  %6 = load double, ptr %3, align 8
  %7 = fcmp ole double %6, 0.000000e+00
  br i1 %7, label %8, label %9

8:                                                ; preds = %1
  store i16 0, ptr %2, align 2
  br label %16

9:                                                ; preds = %1
  %10 = load double, ptr %3, align 8
  %11 = fcmp oge double %10, 6.553500e+04
  br i1 %11, label %12, label %13

12:                                               ; preds = %9
  store i16 -1, ptr %2, align 2
  br label %16

13:                                               ; preds = %9
  %14 = load double, ptr %3, align 8
  %15 = call zeroext i16 @_cmsQuickFloorWord(double noundef %14)
  store i16 %15, ptr %2, align 2
  br label %16

16:                                               ; preds = %13, %12, %8
  %17 = load i16, ptr %2, align 2
  ret i16 %17
}

; Function Attrs: nounwind uwtable
define hidden float @cmsEvalToneCurveFloat(ptr noundef %0, float noundef %1) #0 {
  %3 = alloca float, align 4
  %4 = alloca ptr, align 8
  %5 = alloca float, align 4
  %6 = alloca i16, align 2
  %7 = alloca i16, align 2
  store ptr %0, ptr %4, align 8
  store float %1, ptr %5, align 4
  %8 = load ptr, ptr %4, align 8
  %9 = getelementptr inbounds %struct._cms_curve_struct, ptr %8, i32 0, i32 1
  %10 = load i32, ptr %9, align 8
  %11 = icmp eq i32 %10, 0
  br i1 %11, label %12, label %25

12:                                               ; preds = %2
  %13 = load float, ptr %5, align 4
  %14 = fpext float %13 to double
  %15 = fmul double %14, 6.553500e+04
  %16 = call zeroext i16 @_cmsQuickSaturateWord(double noundef %15)
  store i16 %16, ptr %6, align 2
  %17 = load ptr, ptr %4, align 8
  %18 = load i16, ptr %6, align 2
  %19 = call zeroext i16 @cmsEvalToneCurve16(ptr noundef %17, i16 noundef zeroext %18)
  store i16 %19, ptr %7, align 2
  %20 = load i16, ptr %7, align 2
  %21 = zext i16 %20 to i32
  %22 = sitofp i32 %21 to double
  %23 = fdiv double %22, 6.553500e+04
  %24 = fptrunc double %23 to float
  store float %24, ptr %3, align 4
  br label %31

25:                                               ; preds = %2
  %26 = load ptr, ptr %4, align 8
  %27 = load float, ptr %5, align 4
  %28 = fpext float %27 to double
  %29 = call double @EvalSegmentedFn(ptr noundef %26, double noundef %28)
  %30 = fptrunc double %29 to float
  store float %30, ptr %3, align 4
  br label %31

31:                                               ; preds = %25, %12
  %32 = load float, ptr %3, align 4
  ret float %32
}