; Function Attrs: nounwind uwtable
define hidden float @cmsEvalToneCurveFloat(ptr nocapture noundef readonly %0, float noundef %1) local_unnamed_addr #0 {
  %3 = alloca float, align 4
  %4 = alloca float, align 4
  %5 = alloca i16, align 2
  %6 = alloca i16, align 2
  %7 = getelementptr inbounds i8, ptr %0, i64 8
  %8 = load i32, ptr %7, align 8
  %9 = icmp eq i32 %8, 0
  %10 = fpext float %1 to double
  br i1 %9, label %11, label %29

11:                                               ; preds = %2
  %12 = fmul double %10, 6.553500e+04
  %13 = fadd double %12, 5.000000e-01
  %14 = fcmp ugt double %13, 0.000000e+00
  br i1 %14, label %15, label %_cmsQuickSaturateWord.exit

15:                                               ; preds = %11
  %16 = fcmp ult double %13, 6.553500e+04
  br i1 %16, label %17, label %_cmsQuickSaturateWord.exit

17:                                               ; preds = %15
  %18 = fadd double %13, -3.276700e+04
  %19 = tail call double @llvm.floor.f64(double %18)
  %20 = fptosi double %19 to i32
  %21 = trunc i32 %20 to i16
  %22 = add i16 %21, 32767
  br label %_cmsQuickSaturateWord.exit

_cmsQuickSaturateWord.exit:                       ; preds = %11, %15, %17
  %.0.i = phi i16 [ %22, %17 ], [ 0, %11 ], [ -1, %15 ]
  call void @llvm.lifetime.start.p0(i64 2, ptr nonnull %5)
  call void @llvm.lifetime.start.p0(i64 2, ptr nonnull %6)
  store i16 %.0.i, ptr %5, align 2
  %23 = load ptr, ptr %0, align 8
  %24 = getelementptr inbounds i8, ptr %23, i64 208
  %25 = load ptr, ptr %24, align 8
  call void %25(ptr noundef nonnull %5, ptr noundef nonnull %6, ptr noundef %23) #13
  %26 = load i16, ptr %6, align 2
  call void @llvm.lifetime.end.p0(i64 2, ptr nonnull %5)
  call void @llvm.lifetime.end.p0(i64 2, ptr nonnull %6)
  %27 = uitofp i16 %26 to double
  %28 = fdiv double %27, 6.553500e+04
  br label %77

29:                                               ; preds = %2
  call void @llvm.lifetime.start.p0(i64 4, ptr nonnull %3)
  call void @llvm.lifetime.start.p0(i64 4, ptr nonnull %4)
  %30 = icmp sgt i32 %8, 0
  br i1 %30, label %.lr.ph.i, label %EvalSegmentedFn.exit

.lr.ph.i:                                         ; preds = %29
  %31 = getelementptr inbounds i8, ptr %0, i64 16
  %32 = load ptr, ptr %31, align 8
  %33 = zext nneg i32 %8 to i64
  br label %34

34:                                               ; preds = %75, %.lr.ph.i
  %indvars.iv.i = phi i64 [ %33, %.lr.ph.i ], [ %indvars.iv.next.i, %75 ]
  %indvars.iv.next.i = add nsw i64 %indvars.iv.i, -1
  %35 = getelementptr inbounds %struct.cmsCurveSegment, ptr %32, i64 %indvars.iv.next.i
  %36 = load float, ptr %35, align 8
  %37 = fcmp olt float %36, %1
  br i1 %37, label %38, label %75

38:                                               ; preds = %34
  %39 = getelementptr inbounds i8, ptr %35, i64 4
  %40 = load float, ptr %39, align 4
  %41 = fcmp ult float %40, %1
  br i1 %41, label %75, label %42

42:                                               ; preds = %38
  %43 = getelementptr inbounds i8, ptr %35, i64 8
  %44 = load i32, ptr %43, align 8
  %45 = icmp eq i32 %44, 0
  br i1 %45, label %46, label %64

46:                                               ; preds = %42
  %47 = fsub float %1, %36
  %48 = fsub float %40, %36
  %49 = fdiv float %47, %48
  store float %49, ptr %4, align 4
  %50 = getelementptr inbounds %struct.cmsCurveSegment, ptr %32, i64 %indvars.iv.next.i, i32 5
  %51 = load ptr, ptr %50, align 8
  %52 = getelementptr inbounds i8, ptr %0, i64 24
  %53 = load ptr, ptr %52, align 8
  %54 = getelementptr inbounds ptr, ptr %53, i64 %indvars.iv.next.i
  %55 = load ptr, ptr %54, align 8
  %56 = getelementptr inbounds i8, ptr %55, i64 200
  store ptr %51, ptr %56, align 8
  %57 = load ptr, ptr %52, align 8
  %58 = getelementptr inbounds ptr, ptr %57, i64 %indvars.iv.next.i
  %59 = load ptr, ptr %58, align 8
  %60 = getelementptr inbounds i8, ptr %59, i64 208
  %61 = load ptr, ptr %60, align 8
  call void %61(ptr noundef nonnull %4, ptr noundef nonnull %3, ptr noundef %59) #13
  %62 = load float, ptr %3, align 4
  %63 = fpext float %62 to double
  br label %71

64:                                               ; preds = %42
  %65 = getelementptr inbounds i8, ptr %0, i64 32
  %66 = load ptr, ptr %65, align 8
  %67 = getelementptr inbounds ptr, ptr %66, i64 %indvars.iv.next.i
  %68 = load ptr, ptr %67, align 8
  %69 = getelementptr inbounds i8, ptr %35, i64 16
  %70 = tail call double %68(i32 noundef %44, ptr noundef nonnull %69, double noundef %10) #13
  br label %71

71:                                               ; preds = %64, %46
  %.0.i7 = phi double [ %63, %46 ], [ %70, %64 ]
  %72 = call double @llvm.fabs.f64(double %.0.i7) #14
  %73 = fcmp oeq double %72, 0x7FF0000000000000
  br i1 %73, label %EvalSegmentedFn.exit, label %74

74:                                               ; preds = %71
  br label %EvalSegmentedFn.exit

75:                                               ; preds = %38, %34
  %76 = icmp ugt i64 %indvars.iv.i, 1
  br i1 %76, label %34, label %EvalSegmentedFn.exit, !llvm.loop !13

EvalSegmentedFn.exit:                             ; preds = %75, %29, %71, %74
  %.037.i = phi double [ %.0.i7, %74 ], [ 0x4480F0CF00000000, %71 ], [ 0xC480F0CF00000000, %29 ], [ 0xC480F0CF00000000, %75 ]
  call void @llvm.lifetime.end.p0(i64 4, ptr nonnull %3)
  call void @llvm.lifetime.end.p0(i64 4, ptr nonnull %4)
  br label %77

77:                                               ; preds = %EvalSegmentedFn.exit, %_cmsQuickSaturateWord.exit
  %.0.in = phi double [ %28, %_cmsQuickSaturateWord.exit ], [ %.037.i, %EvalSegmentedFn.exit ]
  %.0 = fptrunc double %.0.in to float
  ret float %.0
}